target datalayout = "e-m:e-p270:32:32-p271:32:32-p272:64:64-i64:64-i128:128-f80:128-n8:16:32:64-S128"
target triple = "x86_64-pc-linux-gnu"

%class.mpfx_manager = type <{ i32, i32, i32, [4 x i8], %class.svector, i32, i8, [3 x i8], %class.id_gen, %class.svector, %class.svector, %class.svector, %class.svector, %class.mpfx, [4 x i8] }>
%class.id_gen = type { i32, %class.svector }
%class.svector = type { %class.vector }
%class.vector = type { ptr }
%class.mpfx = type { i32 }

; Function Attrs: mustprogress nounwind uwtable
define linkonce_odr hidden noundef ptr @_ZNK6vectorIjLb0EjE4dataEv(ptr noundef nonnull align 8 dereferenceable(8) %0) #5 comdat align 2 {
  %2 = alloca ptr, align 8
  store ptr %0, ptr %2, align 8, !tbaa !30
  %3 = load ptr, ptr %2, align 8
  %4 = getelementptr inbounds nuw %class.vector, ptr %3, i32 0, i32 0
  %5 = load ptr, ptr %4, align 8, !tbaa !34
  ret ptr %5
}

; Function Attrs: mustprogress uwtable
define linkonce_odr hidden noundef ptr @_ZNK12mpfx_manager5wordsERK4mpfx(ptr noundef nonnull align 8 dereferenceable(85) %0, ptr noundef nonnull align 4 dereferenceable(4) %1) #4 comdat align 2 {
  %3 = alloca ptr, align 8
  %4 = alloca ptr, align 8
  store ptr %0, ptr %3, align 8, !tbaa !3
  store ptr %1, ptr %4, align 8, !tbaa !28
  %5 = load ptr, ptr %3, align 8
  %6 = getelementptr inbounds nuw %class.mpfx_manager, ptr %5, i32 0, i32 4
  %7 = call noundef ptr @_ZNK6vectorIjLb0EjE4dataEv(ptr noundef nonnull align 8 dereferenceable(8) %6)
  %8 = load ptr, ptr %4, align 8, !tbaa !28
  %9 = load i32, ptr %8, align 4
  %10 = lshr i32 %9, 1
  %11 = getelementptr inbounds nuw %class.mpfx_manager, ptr %5, i32 0, i32 2
  %12 = load i32, ptr %11, align 8, !tbaa !20
  %13 = mul i32 %10, %12
  %14 = zext i32 %13 to i64
  %15 = getelementptr inbounds nuw i32, ptr %7, i64 %14
  ret ptr %15
}

; Function Attrs: mustprogress nounwind uwtable
define linkonce_odr hidden noundef zeroext i1 @_ZN12mpfx_manager7is_zeroERK4mpfx(ptr noundef nonnull align 4 dereferenceable(4) %0) #5 comdat align 2 {
  %2 = alloca ptr, align 8
  store ptr %0, ptr %2, align 8, !tbaa !28
  %3 = load ptr, ptr %2, align 8, !tbaa !28
  %4 = load i32, ptr %3, align 4
  %5 = lshr i32 %4, 1
  %6 = icmp eq i32 %5, 0
  ret i1 %6
}

; Function Attrs: mustprogress uwtable
define hidden noundef zeroext i1 @_ZNK12mpfx_manager2eqERK4mpfxS2_(ptr noundef nonnull align 8 dereferenceable(85) %0, ptr noundef nonnull align 4 dereferenceable(4) %1, ptr noundef nonnull align 4 dereferenceable(4) %2) #4 align 2 {
  %4 = alloca i1, align 1
  %5 = alloca ptr, align 8
  %6 = alloca ptr, align 8
  %7 = alloca ptr, align 8
  %8 = alloca ptr, align 8
  %9 = alloca ptr, align 8
  %10 = alloca i32, align 4
  %11 = alloca i32, align 4
  store ptr %0, ptr %5, align 8, !tbaa !3
  store ptr %1, ptr %6, align 8, !tbaa !28
  store ptr %2, ptr %7, align 8, !tbaa !28
  %12 = load ptr, ptr %5, align 8
  %13 = load ptr, ptr %6, align 8, !tbaa !28
  %14 = call noundef zeroext i1 @_ZN12mpfx_manager7is_zeroERK4mpfx(ptr noundef nonnull align 4 dereferenceable(4) %13)
  br i1 %14, label %15, label %19

15:                                               ; preds = %3
  %16 = load ptr, ptr %7, align 8, !tbaa !28
  %17 = call noundef zeroext i1 @_ZN12mpfx_manager7is_zeroERK4mpfx(ptr noundef nonnull align 4 dereferenceable(4) %16)
  br i1 %17, label %18, label %19

18:                                               ; preds = %15
  store i1 true, ptr %4, align 1
  br label %67

19:                                               ; preds = %15, %3
  %20 = load ptr, ptr %6, align 8, !tbaa !28
  %21 = call noundef zeroext i1 @_ZN12mpfx_manager7is_zeroERK4mpfx(ptr noundef nonnull align 4 dereferenceable(4) %20)
  br i1 %21, label %25, label %22

22:                                               ; preds = %19
  %23 = load ptr, ptr %7, align 8, !tbaa !28
  %24 = call noundef zeroext i1 @_ZN12mpfx_manager7is_zeroERK4mpfx(ptr noundef nonnull align 4 dereferenceable(4) %23)
  br i1 %24, label %25, label %26

25:                                               ; preds = %22, %19
  store i1 false, ptr %4, align 1
  br label %67

26:                                               ; preds = %22
  %27 = load ptr, ptr %6, align 8, !tbaa !28
  %28 = load i32, ptr %27, align 4
  %29 = and i32 %28, 1
  %30 = load ptr, ptr %7, align 8, !tbaa !28
  %31 = load i32, ptr %30, align 4
  %32 = and i32 %31, 1
  %33 = icmp ne i32 %29, %32
  br i1 %33, label %34, label %35

34:                                               ; preds = %26
  store i1 false, ptr %4, align 1
  br label %67

35:                                               ; preds = %26
  call void @llvm.lifetime.start.p0(i64 8, ptr %8) #3
  %36 = load ptr, ptr %6, align 8, !tbaa !28
  %37 = call noundef ptr @_ZNK12mpfx_manager5wordsERK4mpfx(ptr noundef nonnull align 8 dereferenceable(85) %12, ptr noundef nonnull align 4 dereferenceable(4) %36)
  store ptr %37, ptr %8, align 8, !tbaa !35
  call void @llvm.lifetime.start.p0(i64 8, ptr %9) #3
  %38 = load ptr, ptr %7, align 8, !tbaa !28
  %39 = call noundef ptr @_ZNK12mpfx_manager5wordsERK4mpfx(ptr noundef nonnull align 8 dereferenceable(85) %12, ptr noundef nonnull align 4 dereferenceable(4) %38)
  store ptr %39, ptr %9, align 8, !tbaa !35
  call void @llvm.lifetime.start.p0(i64 4, ptr %10) #3
  store i32 0, ptr %10, align 4, !tbaa !8
  br label %40

40:                                               ; preds = %60, %35
  %41 = load i32, ptr %10, align 4, !tbaa !8
  %42 = getelementptr inbounds nuw %class.mpfx_manager, ptr %12, i32 0, i32 2
  %43 = load i32, ptr %42, align 8, !tbaa !20
  %44 = icmp ult i32 %41, %43
  br i1 %44, label %46, label %45

45:                                               ; preds = %40
  store i32 2, ptr %11, align 4
  br label %63

46:                                               ; preds = %40
  %47 = load ptr, ptr %8, align 8, !tbaa !35
  %48 = load i32, ptr %10, align 4, !tbaa !8
  %49 = zext i32 %48 to i64
  %50 = getelementptr inbounds nuw i32, ptr %47, i64 %49
  %51 = load i32, ptr %50, align 4, !tbaa !8
  %52 = load ptr, ptr %9, align 8, !tbaa !35
  %53 = load i32, ptr %10, align 4, !tbaa !8
  %54 = zext i32 %53 to i64
  %55 = getelementptr inbounds nuw i32, ptr %52, i64 %54
  %56 = load i32, ptr %55, align 4, !tbaa !8
  %57 = icmp ne i32 %51, %56
  br i1 %57, label %58, label %59

58:                                               ; preds = %46
  store i1 false, ptr %4, align 1
  store i32 1, ptr %11, align 4
  br label %63

59:                                               ; preds = %46
  br label %60

60:                                               ; preds = %59
  %61 = load i32, ptr %10, align 4, !tbaa !8
  %62 = add i32 %61, 1
  store i32 %62, ptr %10, align 4, !tbaa !8
  br label %40, !llvm.loop !81

63:                                               ; preds = %58, %45
  call void @llvm.lifetime.end.p0(i64 4, ptr %10) #3
  %64 = load i32, ptr %11, align 4
  switch i32 %64, label %66 [
    i32 2, label %65
  ]

65:                                               ; preds = %63
  store i1 true, ptr %4, align 1
  store i32 1, ptr %11, align 4
  br label %66

66:                                               ; preds = %65, %63
  call void @llvm.lifetime.end.p0(i64 8, ptr %9) #3
  call void @llvm.lifetime.end.p0(i64 8, ptr %8) #3
  br label %67

67:                                               ; preds = %66, %34, %25, %18
  %68 = load i1, ptr %4, align 1
  ret i1 %68
}