; Function Attrs: mustprogress nofree norecurse nosync nounwind willreturn memory(read, inaccessiblemem: none) uwtable
define hidden noundef zeroext i1 @_ZNK12mpfx_manager2eqERK4mpfxS2_(ptr noundef nonnull readonly align 8 captures(none) dereferenceable(85) %0, ptr noundef nonnull readonly align 4 captures(none) dereferenceable(4) %1, ptr noundef nonnull readonly align 4 captures(none) dereferenceable(4) %2) local_unnamed_addr #10 align 2 {
  %4 = load i32, ptr %1, align 4
  %5 = icmp ult i32 %4, 2
  %6 = load i32, ptr %2, align 4
  %7 = icmp ult i32 %6, 2
  %brmerge = select i1 %5, i1 true, i1 %7
  %.mux = select i1 %5, i1 %7, i1 false
  br i1 %brmerge, label %.critedge, label %8

8:                                                ; preds = %3
  %9 = xor i32 %6, %4
  %10 = and i32 %9, 1
  %.not = icmp eq i32 %10, 0
  br i1 %.not, label %11, label %.critedge

11:                                               ; preds = %8
  %12 = getelementptr inbounds nuw i8, ptr %0, i64 16
  %13 = load ptr, ptr %12, align 8, !tbaa !3
  %14 = lshr i32 %4, 1
  %15 = getelementptr inbounds nuw i8, ptr %0, i64 8
  %16 = load i32, ptr %15, align 8, !tbaa !19
  %17 = mul i32 %16, %14
  %18 = zext i32 %17 to i64
  %19 = getelementptr inbounds nuw i32, ptr %13, i64 %18
  %20 = lshr i32 %6, 1
  %21 = mul i32 %16, %20
  %22 = zext i32 %21 to i64
  %23 = getelementptr inbounds nuw i32, ptr %13, i64 %22
  %.not19.not20.not = icmp eq i32 %16, 0
  br i1 %.not19.not20.not, label %.critedge, label %.lr.ph.preheader

.lr.ph.preheader:                                 ; preds = %11
  %wide.trip.count = zext i32 %16 to i64
  br label %.lr.ph

.lr.ph:                                           ; preds = %.lr.ph, %.lr.ph.preheader
  %indvars.iv = phi i64 [ 0, %.lr.ph.preheader ], [ %indvars.iv.next, %.lr.ph ]
  %24 = getelementptr inbounds nuw i32, ptr %19, i64 %indvars.iv
  %25 = load i32, ptr %24, align 4, !tbaa !22
  %26 = getelementptr inbounds nuw i32, ptr %23, i64 %indvars.iv
  %27 = load i32, ptr %26, align 4, !tbaa !22
  %.not18 = icmp eq i32 %25, %27
  %indvars.iv.next = add nuw nsw i64 %indvars.iv, 1
  %exitcond.not = icmp ne i64 %indvars.iv.next, %wide.trip.count
  %or.cond.not = select i1 %.not18, i1 %exitcond.not, i1 false
  br i1 %or.cond.not, label %.lr.ph, label %.critedge, !llvm.loop !71

.critedge:                                        ; preds = %.lr.ph, %3, %11, %8
  %.017 = phi i1 [ false, %8 ], [ true, %11 ], [ %.mux, %3 ], [ %.not18, %.lr.ph ]
  ret i1 %.017
}